(iclasses.project
project
p1
(dp2
S'USER_DIR'
p3
S'/home/mbc/.openshot'
p4
sS'IMAGE_DIR'
p5
S'/usr/lib/python2.7/dist-packages/openshot/images'
p6
sS'theme_settings'
p7
NsS'THEMES_DIR'
p8
S'/usr/lib/python2.7/dist-packages/openshot/themes'
p9
sS'TRANSITIONS_DIR'
p10
S'/usr/lib/python2.7/dist-packages/openshot/transitions'
p11
sS'mlt_profile'
p12
NsS'is_modified'
p13
I01
sS'DESKTOP'
p14
S'/home/mbc/Desktop'
p15
sS'LOCALE_DIR'
p16
S'/usr/lib/python2.7/dist-packages/openshot/locale'
p17
sS'tabs'
p18
(lp19
(iclasses.sequences
sequence
p20
(dp21
S'enable_animated_playhead'
p22
I01
sS'scale'
p23
I8
sS'name'
p24
S'Default Sequence 1'
p25
sS'play_head'
p26
NsS'drag_y'
p27
F38.5
sS'play_head_position'
p28
F65.733333333333334
sS'tick_pixels'
p29
I100
sS'tracks'
p30
(lp31
(iclasses.track
track
p32
(dp33
S'clips'
p34
(lp35
(iclasses.clip
clip
p36
(dp37
S'color'
p38
S'Gold'
p39
sS'moved'
p40
I00
sS'video_fade_out'
p41
I00
sS'keyframes'
p42
(dp43
S'start'
p44
(iclasses.keyframe
keyframe
p45
(dp46
S'frame'
p47
I0
sS'height'
p48
F100
sS'width'
p49
F100
sS'x'
F0
sS'y'
F0
sS'alpha'
p50
F1
sS'unique_id'
p51
S'ac7a0fee-eb64-11e8-b0a5-b4b676082b8b'
p52
sbsS'end'
p53
(iclasses.keyframe
keyframe
p54
(dp55
g47
I-1
sg48
F100
sg49
F100
sS'x'
F0
sS'y'
F0
sg50
F1
sg51
S'ac7a11ba-eb64-11e8-b0a5-b4b676082b8b'
p56
sbssS'video_fade_out_amount'
p57
F2
sS'audio_fade_out'
p58
I00
sS'reversed'
p59
I00
sS'speed'
p60
F1
sS'fill'
p61
I01
sS'audio_fade_in_amount'
p62
F2
sS'position_on_track'
p63
F0
sg27
F42.5
sS'drag_x'
p64
F1422.5
sS'play_audio'
p65
I01
sS'original_clip_out'
p66
F115.60000000000001
sS'audio_fade_out_amount'
p67
F2
sS'max_length'
p68
F122.85606666666666
sS'show_preview'
p69
I00
sS'valign'
p70
S'centre'
p71
sS'video_fade_in'
p72
I00
sS'original_length'
p73
F113.93333333333334
sS'audio_fade_in'
p74
I00
sS'request_show_properties'
p75
I00
sS'video_fade_in_amount'
p76
F2
sS'parent'
p77
g32
sS'composite'
p78
I01
sS'start_time'
p79
F1.666666666666667
sS'file_object'
p80
(iclasses.files
OpenShotFile
p81
(dp82
S'max_frames'
p83
F3681
sS'audio_codec'
p84
S'Vorbis'
p85
sS'audio_channels'
p86
I0
sS'thumb_location'
p87
S'/home/mbc/syncd/prog/bllm/video/thumbnail/f92e77e0-eb63-11e8-b0a5-b4b676082b8b_webm_1.png'
p88
sS'name'
p89
S'/home/mbc/syncd/prog/bllm/video/init.webm'
p90
sS'parent'
p91
NsS'file_type'
p92
S'video'
p93
sS'audio_frequency'
p94
I0
sg48
I900
sS'project'
p95
g1
sg49
I1440
sS'length'
p96
F122.85606666666666
sS'fps'
p97
F29.970029970029969
sS'ttl'
p98
I1
sS'video_codec'
p99
S'On2 VP8'
p100
sS'videorate'
p101
(F29.970029970029969
I0
tp102
sS'label'
p103
S''
sg51
S'f93ba596-eb63-11e8-b0a5-b4b676082b8b'
p104
sbsS'distort'
p105
I00
sS'volume'
p106
F100
sS'effects'
p107
(lp108
sS'original_clip_in'
p109
F1.666666666666667
sS'rotation'
p110
F0
sS'is_timeline_scrolling'
p111
I00
sS'thumb_location'
p112
S'/home/mbc/syncd/prog/bllm/video/thumbnail/init_webm_2.png'
p113
sg24
S'init.webm'
p114
sS'original_start_pos'
p115
F0
sS'timeline_current_position'
p116
I1709
sS'halign'
p117
g71
sS'play_video'
p118
I01
sS'end_time'
p119
F115.60000000000001
sS'unique_id'
p120
S'b466ea1a-eb64-11e8-b0a5-b4b676082b8b'
p121
sbasg89
S'Track 2'
p122
sg91
g20
sS'play_audio'
p123
I01
sS'y_top'
p124
I6
sS'play_video'
p125
I01
sS'y_bottom'
p126
I65
sS'x'
I10
sS'transitions'
p127
(lp128
sg51
S'f05115c4-eb63-11e8-b0a5-b4b676082b8b'
p129
sba(iclasses.track
track
p130
(dp131
g34
(lp132
sg89
S'Track 1'
p133
sg91
g20
sg123
I01
sg124
I71
sg125
I01
sg126
I130
sS'x'
I10
sg127
(lp134
sg51
S'f0511db2-eb63-11e8-b0a5-b4b676082b8b'
p135
sbasS'markers'
p136
(lp137
sS'project'
p138
g1
sS'length'
p139
F600
sS'ruler_time'
p140
Nsg64
F-0.16666666666674246
sS'play_head_line'
p141
NsbasS'refresh_xml'
p142
I01
sS'project_type'
p143
S'QVGA 15 fps'
p144
sS'sequences'
p145
(lp146
g20
asS'DEBUG'
p147
I01
sS'UI_DIR'
p148
S'/usr/lib/python2.7/dist-packages/openshot/windows/ui'
p149
sS'PROFILES_DIR'
p150
S'/usr/lib/python2.7/dist-packages/openshot/profiles'
p151
sS'BASE_DIR'
p152
S'/usr/lib/python2.7/dist-packages'
p153
sS'canvas'
p154
NsS'USER_TRANSITIONS_DIR'
p155
S'/home/mbc/.openshot/user_transitions'
p156
sS'EFFECTS_DIR'
p157
S'/usr/lib/python2.7/dist-packages/openshot/effects'
p158
sS'BLENDER_DIR'
p159
S'/usr/lib/python2.7/dist-packages/openshot/blender'
p160
sS'EXPORT_PRESETS_DIR'
p161
S'/usr/lib/python2.7/dist-packages/openshot/export_presets'
p162
sg24
S'BLLM'
p163
sS'file_type'
p164
S'ascii'
p165
sS'theme'
p166
Vfresher
p167
sS'project_folder'
p168
(iclasses.files
OpenShotFolder
p169
(dp170
S'queue'
p171
(lp172
sg24
S''
sg77
NsS'items'
p173
(lp174
g81
asS'label'
p175
S''
sg138
g1
sS'location'
p176
S''
sg120
S'f0510444-eb63-11e8-b0a5-b4b676082b8b'
p177
sbsS'form'
p178
NsS'thumbnailer'
p179
NsS'folder'
p180
S'/home/mbc/syncd/prog/bllm/video'
p181
sS'USER_PROFILES_DIR'
p182
S'/home/mbc/.openshot/user_profiles'
p183
sb.